; Function Attrs: mustprogress nofree norecurse nosync nounwind willreturn memory(argmem: read) uwtable
define hidden ptr @hermesCompileResult_getBytecodeAddr(ptr noundef readonly %res) local_unnamed_addr #3 {
entry:
  %tobool.not = icmp eq ptr %res, null
  br i1 %tobool.not, label %return, label %lor.lhs.false

lor.lhs.false:                                    ; preds = %entry
  %Size.i = getelementptr inbounds i8, ptr %res, i64 40
  %0 = load i32, ptr %Size.i, align 8
  %tobool.not.i = icmp eq i32 %0, 0
  br i1 %tobool.not.i, label %return, label %if.end

if.end:                                           ; preds = %lor.lhs.false
  %bytecode_ = getelementptr inbounds i8, ptr %res, i64 32
  %1 = load ptr, ptr %bytecode_, align 8
  br label %return

return:                                           ; preds = %entry, %lor.lhs.false, %if.end
  %retval.0 = phi ptr [ %1, %if.end ], [ null, %lor.lhs.false ], [ null, %entry ]
  ret ptr %retval.0
}